; Function Attrs: mustprogress nounwind uwtable
define hidden void @_ZN20PSAdaptiveSizePolicy32adjust_eden_for_minor_pause_timeEPm(ptr noundef nonnull align 8 dereferenceable(312) %0, ptr nocapture noundef %1) local_unnamed_addr #0 align 2 {
  %3 = getelementptr inbounds i8, ptr %0, i64 136
  %4 = load ptr, ptr %3, align 8
  %5 = tail call noundef zeroext i1 @_ZN20LinearLeastSquareFit23decrement_will_decreaseEv(ptr noundef nonnull align 8 dereferenceable(88) %4) #7
  br i1 %5, label %6, label %15

6:                                                ; preds = %2
  %7 = getelementptr inbounds i8, ptr %0, i64 188
  store i32 1, ptr %7, align 4
  %8 = load i64, ptr %1, align 8
  %9 = tail call noundef i64 @_ZN18AdaptiveSizePolicy14eden_decrementEm(ptr noundef nonnull align 8 dereferenceable(232) %0, i64 noundef %8) #7
  %10 = getelementptr inbounds i8, ptr %0, i64 280
  %11 = load i64, ptr %10, align 8
  %12 = sub i64 0, %11
  %13 = and i64 %9, %12
  %14 = sub i64 %8, %13
  store i64 %14, ptr %1, align 8
  br label %15

15:                                               ; preds = %6, %2
  ret void
}